target datalayout = "e-m:e-p270:32:32-p271:32:32-p272:64:64-i64:64-i128:128-f80:128-n8:16:32:64-S128"
target triple = "x86_64-unknown-linux-gnu"

%class.enum2bv_rewriter = type { ptr }
%"struct.enum2bv_rewriter::imp" = type { ptr, %class.params_ref, %class.obj_map, %class.obj_map, %class.obj_map.0, %class.ref_vector, %"class.datatype::util", %class.ref_vector.37, %class.ref_vector.37, %class.ref_vector, %class.svector, i32, ptr, %"struct.enum2bv_rewriter::imp::rw" }
%class.params_ref = type { ptr }
%class.obj_map = type { %class.core_hashtable }
%class.core_hashtable = type <{ ptr, i32, i32, i32, [4 x i8] }>
%class.obj_map.0 = type { %class.core_hashtable.1 }
%class.core_hashtable.1 = type <{ ptr, i32, i32, i32, [4 x i8] }>
%"class.datatype::util" = type { ptr, i32, ptr, %class.obj_map.5, %class.obj_map.10, %class.obj_map.15, %class.obj_map, %class.obj_map, %class.obj_map, %class.obj_map.20, %class.obj_map.20, %class.obj_map.20, %class.ref_vector.25, %class.ref_vector_core.30, %class.ptr_vector.33, i32, %class.ptr_vector.35 }
%class.obj_map.5 = type { %class.core_hashtable.6 }
%class.core_hashtable.6 = type <{ ptr, i32, i32, i32, [4 x i8] }>
%class.obj_map.10 = type { %class.core_hashtable.11 }
%class.core_hashtable.11 = type <{ ptr, i32, i32, i32, [4 x i8] }>
%class.obj_map.15 = type { %class.core_hashtable.16 }
%class.core_hashtable.16 = type <{ ptr, i32, i32, i32, [4 x i8] }>
%class.obj_map.20 = type { %class.core_hashtable.21 }
%class.core_hashtable.21 = type <{ ptr, i32, i32, i32, [4 x i8] }>
%class.ref_vector.25 = type { %class.ref_vector_core.26 }
%class.ref_vector_core.26 = type { %class.ref_manager_wrapper.27, %class.ptr_vector.28 }
%class.ref_manager_wrapper.27 = type { ptr }
%class.ptr_vector.28 = type { %class.vector.29 }
%class.vector.29 = type { ptr }
%class.ref_vector_core.30 = type { %class.ptr_vector.31 }
%class.ptr_vector.31 = type { %class.vector.32 }
%class.vector.32 = type { ptr }
%class.ptr_vector.33 = type { %class.vector.34 }
%class.vector.34 = type { ptr }
%class.ptr_vector.35 = type { %class.vector.36 }
%class.vector.36 = type { ptr }
%class.ref_vector.37 = type { %class.ref_vector_core.38 }
%class.ref_vector_core.38 = type { %class.ref_manager_wrapper.39, %class.ptr_vector.40 }
%class.ref_manager_wrapper.39 = type { ptr }
%class.ptr_vector.40 = type { %class.vector.41 }
%class.vector.41 = type { ptr }
%class.ref_vector = type { %class.ref_vector_core }
%class.ref_vector_core = type { %class.ref_manager_wrapper, %class.ptr_vector }
%class.ref_manager_wrapper = type { ptr }
%class.ptr_vector = type { %class.vector }
%class.vector = type { ptr }
%class.svector = type { %class.vector.42 }
%class.vector.42 = type { ptr }
%"struct.enum2bv_rewriter::imp::rw" = type { %class.rewriter_tpl, %"struct.enum2bv_rewriter::imp::rw_cfg" }
%class.rewriter_tpl = type { %class.rewriter_core, ptr, i32, %class.ptr_vector, %class.var_shifter, %class.inv_var_shifter, %class.obj_ref, %class.obj_ref.56, %class.obj_ref.56, %class.svector }
%class.rewriter_core = type { ptr, ptr, i8, i8, %class.ptr_vector.43, ptr, %class.svector.45, %class.ref_vector, %class.ptr_vector.43, ptr, %class.ref_vector.47, %class.obj_hashtable, ptr, i32, %class.svector.54 }
%class.svector.45 = type { %class.vector.46 }
%class.vector.46 = type { ptr }
%class.ptr_vector.43 = type { %class.vector.44 }
%class.vector.44 = type { ptr }
%class.ref_vector.47 = type { %class.ref_vector_core.48 }
%class.ref_vector_core.48 = type { %class.ref_manager_wrapper.49, %class.ptr_vector.50 }
%class.ref_manager_wrapper.49 = type { ptr }
%class.ptr_vector.50 = type { %class.vector.51 }
%class.vector.51 = type { ptr }
%class.obj_hashtable = type { %class.core_hashtable.base.53, [4 x i8] }
%class.core_hashtable.base.53 = type <{ ptr, i32, i32, i32 }>
%class.svector.54 = type { %class.vector.55 }
%class.vector.55 = type { ptr }
%class.var_shifter = type <{ %class.var_shifter_core, i32, i32, i32, [4 x i8] }>
%class.var_shifter_core = type { %class.rewriter_core }
%class.inv_var_shifter = type <{ %class.var_shifter_core, i32, [4 x i8] }>
%class.obj_ref = type { ptr, ptr }
%class.obj_ref.56 = type { ptr, ptr }
%"struct.enum2bv_rewriter::imp::rw_cfg" = type { ptr, ptr, %"class.datatype::util", %class.bv_util, i8, i32, %class.ptr_buffer }
%class.bv_util = type { %class.bv_recognizers, ptr, ptr }
%class.bv_recognizers = type { i32 }
%class.ptr_buffer = type { %class.buffer }
%class.buffer = type { ptr, i32, i32, [16 x %"union.std::aligned_storage<8, 8>::type"] }
%"union.std::aligned_storage<8, 8>::type" = type { [8 x i8] }

; Function Attrs: mustprogress uwtable
define linkonce_odr hidden void @_Z7deallocIN16enum2bv_rewriter3impEEvPT_(ptr noundef %ptr) #4 comdat {
entry:
  %ptr.addr = alloca ptr, align 8
  store ptr %ptr, ptr %ptr.addr, align 8
  %0 = load ptr, ptr %ptr.addr, align 8
  %cmp = icmp eq ptr %0, null
  br i1 %cmp, label %if.then, label %if.end

if.then:                                          ; preds = %entry
  br label %return

if.end:                                           ; preds = %entry
  %1 = load ptr, ptr %ptr.addr, align 8
  call void @_ZN16enum2bv_rewriter3impD2Ev(ptr noundef nonnull align 8 dereferenceable(1480) %1) #3
  %2 = load ptr, ptr %ptr.addr, align 8
  call void @_ZN6memory10deallocateEPv(ptr noundef %2)
  br label %return

return:                                           ; preds = %if.end, %if.then
  ret void
}

; Function Attrs: mustprogress nounwind uwtable
define hidden noundef nonnull align 8 dereferenceable(976) ptr @_ZNK16enum2bv_rewriter1mEv(ptr noundef nonnull align 8 dereferenceable(8) %this) #5 align 2 {
entry:
  %this.addr = alloca ptr, align 8
  store ptr %this, ptr %this.addr, align 8
  %this1 = load ptr, ptr %this.addr, align 8
  %m_imp = getelementptr inbounds %class.enum2bv_rewriter, ptr %this1, i32 0, i32 0
  %0 = load ptr, ptr %m_imp, align 8
  %m = getelementptr inbounds %"struct.enum2bv_rewriter::imp", ptr %0, i32 0, i32 0
  %1 = load ptr, ptr %m, align 8
  ret ptr %1
}

; Function Attrs: mustprogress uwtable
define hidden void @_ZN16enum2bv_rewriter7cleanupEv(ptr noundef nonnull align 8 dereferenceable(8) %this) #4 align 2 personality ptr @__gxx_personality_v0 {
entry:
  %this.addr = alloca ptr, align 8
  %mgr = alloca ptr, align 8
  %p = alloca %class.params_ref, align 8
  %exn.slot = alloca ptr, align 8
  %ehselector.slot = alloca i32, align 4
  store ptr %this, ptr %this.addr, align 8
  %this1 = load ptr, ptr %this.addr, align 8
  %call = call noundef nonnull align 8 dereferenceable(976) ptr @_ZNK16enum2bv_rewriter1mEv(ptr noundef nonnull align 8 dereferenceable(8) %this1)
  store ptr %call, ptr %mgr, align 8
  %m_imp = getelementptr inbounds %class.enum2bv_rewriter, ptr %this1, i32 0, i32 0
  %0 = load ptr, ptr %m_imp, align 8
  %m_params = getelementptr inbounds %"struct.enum2bv_rewriter::imp", ptr %0, i32 0, i32 1
  call void @_ZN10params_refC1ERKS_(ptr noundef nonnull align 8 dereferenceable(8) %p, ptr noundef nonnull align 8 dereferenceable(8) %m_params)
  %m_imp2 = getelementptr inbounds %class.enum2bv_rewriter, ptr %this1, i32 0, i32 0
  %1 = load ptr, ptr %m_imp2, align 8
  invoke void @_Z7deallocIN16enum2bv_rewriter3impEEvPT_(ptr noundef %1)
          to label %invoke.cont unwind label %lpad

invoke.cont:                                      ; preds = %entry
  %call4 = invoke noalias noundef ptr @_ZN6memory8allocateEm(i64 noundef 1480)
          to label %invoke.cont3 unwind label %lpad

invoke.cont3:                                     ; preds = %invoke.cont
  %2 = load ptr, ptr %mgr, align 8
  invoke void @_ZN16enum2bv_rewriter3impC2ER11ast_managerRK10params_ref(ptr noundef nonnull align 8 dereferenceable(1480) %call4, ptr noundef nonnull align 8 dereferenceable(976) %2, ptr noundef nonnull align 8 dereferenceable(8) %p)
          to label %invoke.cont5 unwind label %lpad

invoke.cont5:                                     ; preds = %invoke.cont3
  %m_imp6 = getelementptr inbounds %class.enum2bv_rewriter, ptr %this1, i32 0, i32 0
  store ptr %call4, ptr %m_imp6, align 8
  call void @_ZN10params_refD1Ev(ptr noundef nonnull align 8 dereferenceable(8) %p) #3
  ret void

lpad:                                             ; preds = %invoke.cont3, %invoke.cont, %entry
  %3 = landingpad { ptr, i32 }
          cleanup
  %4 = extractvalue { ptr, i32 } %3, 0
  store ptr %4, ptr %exn.slot, align 8
  %5 = extractvalue { ptr, i32 } %3, 1
  store i32 %5, ptr %ehselector.slot, align 4
  call void @_ZN10params_refD1Ev(ptr noundef nonnull align 8 dereferenceable(8) %p) #3
  br label %eh.resume

eh.resume:                                        ; preds = %lpad
  %exn = load ptr, ptr %exn.slot, align 8
  %sel = load i32, ptr %ehselector.slot, align 4
  %lpad.val = insertvalue { ptr, i32 } poison, ptr %exn, 0
  %lpad.val7 = insertvalue { ptr, i32 } %lpad.val, i32 %sel, 1
  resume { ptr, i32 } %lpad.val7
}